target datalayout = "e-m:e-p270:32:32-p271:32:32-p272:64:64-i64:64-i128:128-f80:128-n8:16:32:64-S128"
target triple = "x86_64-unknown-linux-gnu"

%"struct.std::array" = type { [42 x %"struct.Assimp::Blender::CustomDataTypeDescription"] }
%"struct.Assimp::Blender::CustomDataTypeDescription" = type { ptr, ptr, ptr }
%"class.std::__shared_count" = type { ptr }
%"class.std::__shared_ptr.32" = type { ptr, %"class.std::__shared_count" }

@_ZN6Assimp7BlenderL26customDataTypeDescriptionsE = internal global %"struct.std::array" zeroinitializer, align 8
@.str.9 = private unnamed_addr constant [17 x i8] c"CustomData.type \00", align 1
@.str.10 = private unnamed_addr constant [14 x i8] c" out of index\00", align 1
@_ZTIN6Assimp7Blender5ErrorE = linkonce_odr hidden constant { ptr, ptr, ptr } { ptr getelementptr inbounds (ptr, ptr @_ZTVN10__cxxabiv120__si_class_type_infoE, i64 2), ptr @_ZTSN6Assimp7Blender5ErrorE, ptr @_ZTI17DeadlyImportError }, comdat, align 8

; Function Attrs: mustprogress nounwind uwtable
define linkonce_odr hidden noundef nonnull align 8 dereferenceable(24) ptr @_ZNSt14__array_traitsIN6Assimp7Blender25CustomDataTypeDescriptionELm42EE6_S_refERA42_KS2_m(ptr noundef nonnull align 8 dereferenceable(1008) %__t, i64 noundef %__n) #0 comdat align 2 {
entry:
  %__t.addr = alloca ptr, align 8
  %__n.addr = alloca i64, align 8
  store ptr %__t, ptr %__t.addr, align 8
  store i64 %__n, ptr %__n.addr, align 8
  %0 = load ptr, ptr %__t.addr, align 8
  %1 = load i64, ptr %__n.addr, align 8
  %arrayidx = getelementptr inbounds [42 x %"struct.Assimp::Blender::CustomDataTypeDescription"], ptr %0, i64 0, i64 %1
  ret ptr %arrayidx
}

; Function Attrs: mustprogress nounwind uwtable
define linkonce_odr hidden noundef ptr @_ZNKSt12__shared_ptrIN6Assimp7Blender8ElemBaseELN9__gnu_cxx12_Lock_policyE2EE3getEv(ptr noundef nonnull align 8 dereferenceable(16) %this) #0 comdat align 2 {
entry:
  %this.addr = alloca ptr, align 8
  store ptr %this, ptr %this.addr, align 8
  %this1 = load ptr, ptr %this.addr, align 8
  %_M_ptr = getelementptr inbounds %"class.std::__shared_ptr.32", ptr %this1, i32 0, i32 0
  %0 = load ptr, ptr %_M_ptr, align 8
  ret ptr %0
}

; Function Attrs: mustprogress nounwind uwtable
define linkonce_odr hidden noundef nonnull align 8 dereferenceable(24) ptr @_ZNSt5arrayIN6Assimp7Blender25CustomDataTypeDescriptionELm42EEixEm(ptr noundef nonnull align 8 dereferenceable(1008) %this, i64 noundef %__n) #0 comdat align 2 {
entry:
  %this.addr = alloca ptr, align 8
  %__n.addr = alloca i64, align 8
  store ptr %this, ptr %this.addr, align 8
  store i64 %__n, ptr %__n.addr, align 8
  %this1 = load ptr, ptr %this.addr, align 8
  %_M_elems = getelementptr inbounds %"struct.std::array", ptr %this1, i32 0, i32 0
  %0 = load i64, ptr %__n.addr, align 8
  %call = call noundef nonnull align 8 dereferenceable(24) ptr @_ZNSt14__array_traitsIN6Assimp7Blender25CustomDataTypeDescriptionELm42EE6_S_refERA42_KS2_m(ptr noundef nonnull align 8 dereferenceable(1008) %_M_elems, i64 noundef %0) #14
  ret ptr %call
}

; Function Attrs: mustprogress nounwind uwtable
define hidden noundef zeroext i1 @_ZN6Assimp7Blender21isValidCustomDataTypeEi(i32 noundef %cdtype) #0 {
entry:
  %cdtype.addr = alloca i32, align 4
  store i32 %cdtype, ptr %cdtype.addr, align 4
  %0 = load i32, ptr %cdtype.addr, align 4
  %cmp = icmp sge i32 %0, 0
  br i1 %cmp, label %land.rhs, label %land.end

land.rhs:                                         ; preds = %entry
  %1 = load i32, ptr %cdtype.addr, align 4
  %cmp1 = icmp slt i32 %1, 42
  br label %land.end

land.end:                                         ; preds = %land.rhs, %entry
  %2 = phi i1 [ false, %entry ], [ %cmp1, %land.rhs ]
  ret i1 %2
}

; Function Attrs: mustprogress uwtable
define hidden noundef zeroext i1 @_ZN6Assimp7Blender14readCustomDataERSt10shared_ptrINS0_8ElemBaseEEimRKNS0_12FileDatabaseE(ptr noundef nonnull align 8 dereferenceable(16) %out, i32 noundef %cdtype, i64 noundef %cnt, ptr noundef nonnull align 8 dereferenceable(232) %db) #2 personality ptr @__gxx_personality_v0 {
entry:
  %retval = alloca i1, align 1
  %out.addr = alloca ptr, align 8
  %cdtype.addr = alloca i32, align 4
  %cnt.addr = alloca i64, align 8
  %db.addr = alloca ptr, align 8
  %exn.slot = alloca ptr, align 8
  %ehselector.slot = alloca i32, align 4
  %cdtd = alloca %"struct.Assimp::Blender::CustomDataTypeDescription", align 8
  store ptr %out, ptr %out.addr, align 8
  store i32 %cdtype, ptr %cdtype.addr, align 4
  store i64 %cnt, ptr %cnt.addr, align 8
  store ptr %db, ptr %db.addr, align 8
  %0 = load i32, ptr %cdtype.addr, align 4
  %call = call noundef zeroext i1 @_ZN6Assimp7Blender21isValidCustomDataTypeEi(i32 noundef %0)
  br i1 %call, label %if.end, label %if.then

if.then:                                          ; preds = %entry
  %exception = call ptr @__cxa_allocate_exception(i64 16) #14
  invoke void @_ZN6Assimp7Blender5ErrorC2IJRA17_KcRKiRA14_S3_EEEDpOT_(ptr noundef nonnull align 8 dereferenceable(16) %exception, ptr noundef nonnull align 1 dereferenceable(17) @.str.9, ptr noundef nonnull align 4 dereferenceable(4) %cdtype.addr, ptr noundef nonnull align 1 dereferenceable(14) @.str.10)
          to label %invoke.cont unwind label %lpad

invoke.cont:                                      ; preds = %if.then
  call void @__cxa_throw(ptr %exception, ptr @_ZTIN6Assimp7Blender5ErrorE, ptr @_ZN6Assimp7Blender5ErrorD2Ev) #15
  unreachable

lpad:                                             ; preds = %if.then
  %1 = landingpad { ptr, i32 }
          cleanup
  %2 = extractvalue { ptr, i32 } %1, 0
  store ptr %2, ptr %exn.slot, align 8
  %3 = extractvalue { ptr, i32 } %1, 1
  store i32 %3, ptr %ehselector.slot, align 4
  call void @__cxa_free_exception(ptr %exception) #14
  br label %eh.resume

if.end:                                           ; preds = %entry
  %4 = load i32, ptr %cdtype.addr, align 4
  %conv = sext i32 %4 to i64
  %call1 = call noundef nonnull align 8 dereferenceable(24) ptr @_ZNSt5arrayIN6Assimp7Blender25CustomDataTypeDescriptionELm42EEixEm(ptr noundef nonnull align 8 dereferenceable(1008) @_ZN6Assimp7BlenderL26customDataTypeDescriptionsE, i64 noundef %conv) #14
  call void @llvm.memcpy.p0.p0.i64(ptr align 8 %cdtd, ptr align 8 %call1, i64 24, i1 false)
  %Read = getelementptr inbounds %"struct.Assimp::Blender::CustomDataTypeDescription", ptr %cdtd, i32 0, i32 0
  %5 = load ptr, ptr %Read, align 8
  %tobool = icmp ne ptr %5, null
  br i1 %tobool, label %land.lhs.true, label %if.end13

land.lhs.true:                                    ; preds = %if.end
  %Create = getelementptr inbounds %"struct.Assimp::Blender::CustomDataTypeDescription", ptr %cdtd, i32 0, i32 1
  %6 = load ptr, ptr %Create, align 8
  %tobool2 = icmp ne ptr %6, null
  br i1 %tobool2, label %land.lhs.true3, label %if.end13

land.lhs.true3:                                   ; preds = %land.lhs.true
  %Destroy = getelementptr inbounds %"struct.Assimp::Blender::CustomDataTypeDescription", ptr %cdtd, i32 0, i32 2
  %7 = load ptr, ptr %Destroy, align 8
  %tobool4 = icmp ne ptr %7, null
  br i1 %tobool4, label %land.lhs.true5, label %if.end13

land.lhs.true5:                                   ; preds = %land.lhs.true3
  %8 = load i64, ptr %cnt.addr, align 8
  %cmp = icmp ugt i64 %8, 0
  br i1 %cmp, label %if.then6, label %if.end13

if.then6:                                         ; preds = %land.lhs.true5
  %9 = load ptr, ptr %out.addr, align 8
  %Create7 = getelementptr inbounds %"struct.Assimp::Blender::CustomDataTypeDescription", ptr %cdtd, i32 0, i32 1
  %10 = load ptr, ptr %Create7, align 8
  %11 = load i64, ptr %cnt.addr, align 8
  %call8 = call noundef ptr %10(i64 noundef %11)
  %Destroy9 = getelementptr inbounds %"struct.Assimp::Blender::CustomDataTypeDescription", ptr %cdtd, i32 0, i32 2
  %12 = load ptr, ptr %Destroy9, align 8
  call void @_ZNSt12__shared_ptrIN6Assimp7Blender8ElemBaseELN9__gnu_cxx12_Lock_policyE2EE5resetIS2_PFvPS2_EEENSt9enable_ifIXsr21__sp_is_constructibleIS2_T_EE5valueEvE4typeEPSB_T0_(ptr noundef nonnull align 8 dereferenceable(16) %9, ptr noundef %call8, ptr noundef %12)
  %Read10 = getelementptr inbounds %"struct.Assimp::Blender::CustomDataTypeDescription", ptr %cdtd, i32 0, i32 0
  %13 = load ptr, ptr %Read10, align 8
  %14 = load ptr, ptr %out.addr, align 8
  %call11 = call noundef ptr @_ZNKSt12__shared_ptrIN6Assimp7Blender8ElemBaseELN9__gnu_cxx12_Lock_policyE2EE3getEv(ptr noundef nonnull align 8 dereferenceable(16) %14) #14
  %15 = load i64, ptr %cnt.addr, align 8
  %16 = load ptr, ptr %db.addr, align 8
  %call12 = call noundef zeroext i1 %13(ptr noundef %call11, i64 noundef %15, ptr noundef nonnull align 8 dereferenceable(232) %16)
  store i1 %call12, ptr %retval, align 1
  br label %return

if.end13:                                         ; preds = %land.lhs.true5, %land.lhs.true3, %land.lhs.true, %if.end
  store i1 false, ptr %retval, align 1
  br label %return

return:                                           ; preds = %if.end13, %if.then6
  %17 = load i1, ptr %retval, align 1
  ret i1 %17

eh.resume:                                        ; preds = %lpad
  %exn = load ptr, ptr %exn.slot, align 8
  %sel = load i32, ptr %ehselector.slot, align 4
  %lpad.val = insertvalue { ptr, i32 } poison, ptr %exn, 0
  %lpad.val14 = insertvalue { ptr, i32 } %lpad.val, i32 %sel, 1
  resume { ptr, i32 } %lpad.val14
}