; Function Attrs: mustprogress uwtable
define hidden noundef zeroext i1 @_ZN6Assimp7Blender14readCustomDataERSt10shared_ptrINS0_8ElemBaseEEimRKNS0_12FileDatabaseE(ptr noundef nonnull align 8 dereferenceable(16) %out, i32 noundef %cdtype, i64 noundef %cnt, ptr noundef nonnull align 8 dereferenceable(232) %db) local_unnamed_addr #0 personality ptr @__gxx_personality_v0 {
entry:
  %cdtype.addr = alloca i32, align 4
  store i32 %cdtype, ptr %cdtype.addr, align 4
  %0 = icmp ult i32 %cdtype, 42
  br i1 %0, label %if.end, label %if.then

if.then:                                          ; preds = %entry
  %exception = tail call ptr @__cxa_allocate_exception(i64 16) #14
  invoke void @_ZN6Assimp7Blender5ErrorC2IJRA17_KcRKiRA14_S3_EEEDpOT_(ptr noundef nonnull align 8 dereferenceable(16) %exception, ptr noundef nonnull align 1 dereferenceable(17) @.str.9, ptr noundef nonnull align 4 dereferenceable(4) %cdtype.addr, ptr noundef nonnull align 1 dereferenceable(14) @.str.10)
          to label %invoke.cont unwind label %lpad

invoke.cont:                                      ; preds = %if.then
  call void @__cxa_throw(ptr nonnull %exception, ptr nonnull @_ZTIN6Assimp7Blender5ErrorE, ptr nonnull @_ZN6Assimp7Blender5ErrorD2Ev) #16
  unreachable

lpad:                                             ; preds = %if.then
  %1 = landingpad { ptr, i32 }
          cleanup
  call void @__cxa_free_exception(ptr %exception) #14
  resume { ptr, i32 } %1

if.end:                                           ; preds = %entry
  %conv = zext nneg i32 %cdtype to i64
  %arrayidx.i.i = getelementptr inbounds [42 x %"struct.Assimp::Blender::CustomDataTypeDescription"], ptr @_ZN6Assimp7BlenderL26customDataTypeDescriptionsE, i64 0, i64 %conv
  %cdtd.sroa.0.0.copyload = load ptr, ptr %arrayidx.i.i, align 8
  %cdtd.sroa.3.0.call1.sroa_idx = getelementptr inbounds i8, ptr %arrayidx.i.i, i64 8
  %cdtd.sroa.3.0.copyload = load ptr, ptr %cdtd.sroa.3.0.call1.sroa_idx, align 8
  %cdtd.sroa.5.0.call1.sroa_idx = getelementptr inbounds i8, ptr %arrayidx.i.i, i64 16
  %cdtd.sroa.5.0.copyload = load ptr, ptr %cdtd.sroa.5.0.call1.sroa_idx, align 8
  %tobool = icmp ne ptr %cdtd.sroa.0.0.copyload, null
  %tobool2 = icmp ne ptr %cdtd.sroa.3.0.copyload, null
  %or.cond = select i1 %tobool, i1 %tobool2, i1 false
  %tobool4 = icmp ne ptr %cdtd.sroa.5.0.copyload, null
  %or.cond1 = select i1 %or.cond, i1 %tobool4, i1 false
  %cmp = icmp ne i64 %cnt, 0
  %or.cond2 = and i1 %cmp, %or.cond1
  br i1 %or.cond2, label %if.then6, label %return

if.then6:                                         ; preds = %if.end
  %call8 = tail call noundef ptr %cdtd.sroa.3.0.copyload(i64 noundef %cnt)
  tail call void @_ZNSt12__shared_ptrIN6Assimp7Blender8ElemBaseELN9__gnu_cxx12_Lock_policyE2EE5resetIS2_PFvPS2_EEENSt9enable_ifIXsr21__sp_is_constructibleIS2_T_EE5valueEvE4typeEPSB_T0_(ptr noundef nonnull align 8 dereferenceable(16) %out, ptr noundef %call8, ptr noundef nonnull %cdtd.sroa.5.0.copyload)
  %2 = load ptr, ptr %out, align 8
  %call12 = tail call noundef zeroext i1 %cdtd.sroa.0.0.copyload(ptr noundef %2, i64 noundef %cnt, ptr noundef nonnull align 8 dereferenceable(232) %db)
  br label %return

return:                                           ; preds = %if.end, %if.then6
  %retval.0 = phi i1 [ %call12, %if.then6 ], [ false, %if.end ]
  ret i1 %retval.0
}